target datalayout = "e-m:e-p270:32:32-p271:32:32-p272:64:64-i64:64-i128:128-f80:128-n8:16:32:64-S128"
target triple = "x86_64-pc-linux-gnu"

%struct._packet_info = type { ptr, ptr, i32, i32, %struct.nstime_t, %struct.nstime_t, %struct.nstime_t, i8, ptr, ptr, ptr, ptr, %struct._address, %struct._address, %struct._address, %struct._address, %struct._address, %struct._address, i32, ptr, i8, [3 x i8], %struct.anon, i32, i32, i32, i32, ptr, i8, ptr, ptr, i16, i16, i32, i32, i16, i32, i32, ptr, ptr, ptr, i8, i8, i16, i16, i16, i32, i16, i16, ptr, ptr, ptr, ptr, ptr, i32, i32 }
%struct.nstime_t = type { i64, i32 }
%struct._address = type { i32, i32, ptr, ptr }
%struct.anon = type { i8, [3 x i8] }

@ett_banana = internal global i32 0, align 4
@.str.33 = private unnamed_addr constant [7 x i8] c"Banana\00", align 1
@proto_banana = internal global i32 0, align 4
@.str.69 = private unnamed_addr constant [18 x i8] c"First element: %s\00", align 1
@.str.70 = private unnamed_addr constant [17 x i8] c"Unknown type: %u\00", align 1

; Function Attrs: null_pointer_is_valid sspstrong uwtable
define internal i32 @dissect_banana(ptr noundef %0, ptr noundef %1, ptr noundef %2, ptr noundef %3) #0 {
  %5 = alloca i32, align 4
  %6 = alloca ptr, align 8
  %7 = alloca ptr, align 8
  %8 = alloca ptr, align 8
  %9 = alloca ptr, align 8
  %10 = alloca i8, align 1
  %11 = alloca i32, align 4
  %12 = alloca i32, align 4
  %13 = alloca ptr, align 8
  %14 = alloca ptr, align 8
  %15 = alloca i32, align 4
  store ptr %0, ptr %6, align 8
  store ptr %1, ptr %7, align 8
  store ptr %2, ptr %8, align 8
  store ptr %3, ptr %9, align 8
  call void @llvm.lifetime.start.p0(i64 1, ptr %10) #3
  store i8 0, ptr %10, align 1
  call void @llvm.lifetime.start.p0(i64 4, ptr %11) #3
  store i32 0, ptr %11, align 4
  call void @llvm.lifetime.start.p0(i64 4, ptr %12) #3
  call void @llvm.lifetime.start.p0(i64 8, ptr %13) #3
  call void @llvm.lifetime.start.p0(i64 8, ptr %14) #3
  %16 = load ptr, ptr %6, align 8
  %17 = call i32 @tvb_reported_length(ptr noundef %16)
  %18 = icmp ult i32 %17, 2
  br i1 %18, label %19, label %20

19:                                               ; preds = %4
  store i32 0, ptr %5, align 4
  store i32 1, ptr %15, align 4
  br label %79

20:                                               ; preds = %4
  %21 = load ptr, ptr %7, align 8
  %22 = getelementptr inbounds nuw %struct._packet_info, ptr %21, i32 0, i32 1
  %23 = load ptr, ptr %22, align 8
  call void @col_set_str(ptr noundef %23, i32 noundef 35, ptr noundef @.str.33)
  br label %24

24:                                               ; preds = %46, %20
  %25 = load ptr, ptr %6, align 8
  %26 = load i32, ptr %11, align 4
  %27 = call i32 @tvb_reported_length_remaining(ptr noundef %25, i32 noundef %26)
  %28 = icmp sgt i32 %27, 0
  br i1 %28, label %29, label %32

29:                                               ; preds = %24
  %30 = load i32, ptr %11, align 4
  %31 = icmp slt i32 %30, 8
  br label %32

32:                                               ; preds = %29, %24
  %33 = phi i1 [ false, %24 ], [ %31, %29 ]
  br i1 %33, label %34, label %49

34:                                               ; preds = %32
  %35 = load ptr, ptr %6, align 8
  %36 = load i32, ptr %11, align 4
  %37 = call zeroext i8 @tvb_get_uint8(ptr noundef %35, i32 noundef %36)
  store i8 %37, ptr %10, align 1
  %38 = load i8, ptr %10, align 1
  %39 = zext i8 %38 to i32
  %40 = icmp sge i32 %39, 128
  br i1 %40, label %41, label %46

41:                                               ; preds = %34
  %42 = load i8, ptr %10, align 1
  %43 = zext i8 %42 to i32
  %44 = icmp sle i32 %43, 135
  br i1 %44, label %45, label %46

45:                                               ; preds = %41
  br label %49

46:                                               ; preds = %41, %34
  %47 = load i32, ptr %11, align 4
  %48 = add i32 %47, 1
  store i32 %48, ptr %11, align 4
  br label %24, !llvm.loop !6

49:                                               ; preds = %45, %32
  %50 = load ptr, ptr %7, align 8
  %51 = getelementptr inbounds nuw %struct._packet_info, ptr %50, i32 0, i32 1
  %52 = load ptr, ptr %51, align 8
  %53 = load i8, ptr %10, align 1
  %54 = zext i8 %53 to i32
  %55 = call ptr @val_to_str(i32 noundef %54, ptr noundef @type_vals, ptr noundef @.str.70)
  call void (ptr, i32, ptr, ...) @col_add_fstr(ptr noundef %52, i32 noundef 25, ptr noundef @.str.69, ptr noundef %55)
  %56 = load ptr, ptr %8, align 8
  %57 = load i32, ptr @proto_banana, align 4
  %58 = load ptr, ptr %6, align 8
  %59 = call ptr @proto_tree_add_item(ptr noundef %56, i32 noundef %57, ptr noundef %58, i32 noundef 0, i32 noundef -1, i32 noundef 0)
  store ptr %59, ptr %13, align 8
  %60 = load ptr, ptr %13, align 8
  %61 = load i32, ptr @ett_banana, align 4
  %62 = call ptr @proto_item_add_subtree(ptr noundef %60, i32 noundef %61)
  store ptr %62, ptr %14, align 8
  store i32 0, ptr %11, align 4
  store i32 -1, ptr %12, align 4
  br label %63

63:                                               ; preds = %67, %49
  %64 = load i32, ptr %11, align 4
  %65 = load i32, ptr %12, align 4
  %66 = icmp sgt i32 %64, %65
  br i1 %66, label %67, label %76

67:                                               ; preds = %63
  %68 = load i32, ptr %11, align 4
  store i32 %68, ptr %12, align 4
  %69 = load ptr, ptr %6, align 8
  %70 = load ptr, ptr %7, align 8
  %71 = load ptr, ptr %14, align 8
  %72 = load i32, ptr %11, align 4
  %73 = call i32 @dissect_banana_element(ptr noundef %69, ptr noundef %70, ptr noundef %71, i32 noundef %72)
  %74 = load i32, ptr %11, align 4
  %75 = add i32 %74, %73
  store i32 %75, ptr %11, align 4
  br label %63, !llvm.loop !8

76:                                               ; preds = %63
  %77 = load ptr, ptr %6, align 8
  %78 = call i32 @tvb_reported_length(ptr noundef %77)
  store i32 %78, ptr %5, align 4
  store i32 1, ptr %15, align 4
  br label %79

79:                                               ; preds = %76, %19
  call void @llvm.lifetime.end.p0(i64 8, ptr %14) #3
  call void @llvm.lifetime.end.p0(i64 8, ptr %13) #3
  call void @llvm.lifetime.end.p0(i64 4, ptr %12) #3
  call void @llvm.lifetime.end.p0(i64 4, ptr %11) #3
  call void @llvm.lifetime.end.p0(i64 1, ptr %10) #3
  %80 = load i32, ptr %5, align 4
  ret i32 %80
}