; Function Attrs: null_pointer_is_valid sspstrong uwtable
define internal i32 @dissect_banana(ptr noundef %0, ptr noundef %1, ptr noundef %2, ptr readnone captures(none) %3) #0 {
  %5 = tail call i32 @tvb_reported_length(ptr noundef %0)
  %6 = icmp ult i32 %5, 2
  br i1 %6, label %32, label %7

7:                                                ; preds = %4
  %8 = getelementptr inbounds nuw i8, ptr %1, i64 8
  %9 = load ptr, ptr %8, align 8
  tail call void @col_set_str(ptr noundef %9, i32 noundef 35, ptr noundef nonnull @.str.33)
  %10 = tail call i32 @tvb_reported_length_remaining(ptr noundef %0, i32 noundef 0)
  %11 = icmp sgt i32 %10, 0
  br i1 %11, label %.lr.ph, label %._crit_edge

12:                                               ; preds = %.lr.ph
  %13 = add nuw nsw i32 %.02830, 1
  %14 = tail call i32 @tvb_reported_length_remaining(ptr noundef %0, i32 noundef %13)
  %15 = icmp sgt i32 %14, 0
  %16 = icmp samesign ult i32 %.02830, 7
  %17 = select i1 %15, i1 %16, i1 false
  br i1 %17, label %.lr.ph, label %._crit_edge.loopexit, !llvm.loop !6

.lr.ph:                                           ; preds = %7, %12
  %.02830 = phi i32 [ %13, %12 ], [ 0, %7 ]
  %18 = tail call zeroext i8 @tvb_get_uint8(ptr noundef %0, i32 noundef %.02830)
  %or.cond = icmp slt i8 %18, -120
  br i1 %or.cond, label %._crit_edge.loopexit, label %12

._crit_edge.loopexit:                             ; preds = %.lr.ph, %12
  %19 = zext i8 %18 to i32
  br label %._crit_edge

._crit_edge:                                      ; preds = %._crit_edge.loopexit, %7
  %.1 = phi i32 [ 0, %7 ], [ %19, %._crit_edge.loopexit ]
  %20 = load ptr, ptr %8, align 8
  %21 = tail call ptr @val_to_str(i32 noundef %.1, ptr noundef nonnull @type_vals, ptr noundef nonnull @.str.70)
  tail call void (ptr, i32, ptr, ...) @col_add_fstr(ptr noundef %20, i32 noundef 25, ptr noundef nonnull @.str.69, ptr noundef %21)
  %22 = load i32, ptr @proto_banana, align 4
  %23 = tail call ptr @proto_tree_add_item(ptr noundef %2, i32 noundef %22, ptr noundef %0, i32 noundef 0, i32 noundef -1, i32 noundef 0)
  %24 = load i32, ptr @ett_banana, align 4
  %25 = tail call ptr @proto_item_add_subtree(ptr noundef %23, i32 noundef %24)
  br label %26

26:                                               ; preds = %._crit_edge, %26
  %.12933 = phi i32 [ 0, %._crit_edge ], [ %28, %26 ]
  %27 = tail call fastcc i32 @dissect_banana_element(ptr noundef %0, ptr noundef %1, ptr noundef %25, i32 noundef %.12933)
  %28 = add i32 %27, %.12933
  %29 = icmp sgt i32 %28, %.12933
  br i1 %29, label %26, label %30, !llvm.loop !8

30:                                               ; preds = %26
  %31 = tail call i32 @tvb_reported_length(ptr noundef %0)
  br label %32

32:                                               ; preds = %4, %30
  %.0 = phi i32 [ %31, %30 ], [ 0, %4 ]
  ret i32 %.0
}